(lp0
(lp1
S'Chinese_Culture_Center'
p2
aS'Alcatraz'
p3
aS'Golden_Gate_Bridge'
p4
aS'AT_T_Park'
p5
aS'San_Francisco_Bay'
p6
aS'Dylan_s_Tours'
p7
aS'Streets_of_San_Francisco_Bike_Tours'
p8
aS'Urban_Trek_USA'
p9
aS'Wild_SF_Walking_Tours'
p10
aS'The_Real_S_F_Tour'
p11
aS'Golden_Gate_Park'
p12
aS'Lands_End'
p13
aS'Twin_Peaks'
p14
aS'The_Exploratorium'
p15
aS'Palace_of_Fine_Arts'
p16
aS'Walt_Disney_Family_Museum'
p17
aS'California_Academy_of_Sciences'
p18
aS'Legion_of_Honor'
p19
aS'Cable_Cars'
p20
aS'Cable_Car_Museum'
p21
aS'Musee_Mecanique'
p22
aS'Crissy_Field'
p23
aS'Lombard_Street'
p24
aS'Green_Dream_Tours_Wine_Country_Tour_Specialist'
p25
aS'Vantigo_Tours'
p26
aS'Green_Hills_Wine_Tours'
p27
aS'Presidio_of_San_Francisco'
p28
aS'De_Young_Museum'
p29
aS'Pier_39'
p30
aS'Incredible_Adventures_Day_Tours'
p31
aS'Silver_Lion_Service_Private_Tours'
p32
aS'Fort_Point_National_Historic_Site'
p33
aS'Baker_Beach'
p34
aS'Ferry_Building_Marketplace'
p35
aS'Asian_Art_Museum'
p36
aS'City_Lights_Booksellers'
p37
aS'Angel_Island_State_Park'
p38
aS'Grace_Cathedral'
p39
aS'Ferry_Plaza_Farmer_s_Market'
p40
aS'Fisherman_s_Wharf'
p41
aS'Golden_Gate_Promenade'
p42
aS'16th_Avenue_Tiled_Steps'
p43
aS'Japanese_Tea_Garden'
p44
aS'Bay_Voyager'
p45
aS'Alcatraz_Cruises_LLC'
p46
aS'Red_and_White_Fleet'
p47
aS'San_Francisco_Botanical_Garden'
p48
aS'San_Francisco_City_Hall'
p49
aS'Coit_Tower'
p50
aS'USS_Pampanito'
p51
aS'The_Embarcadero'
p52
aS'Avital_Food_Tours'
p53
aS'Local_Tastes_of_the_City_Tours'
p54
aS'Sidewalk_Food_Tours_of_San_Francisco'
p55
aS'Filbert_Steps'
p56
aS'Scenic_49_Mile_Drive'
p57
aS'The_Castro'
p58
aS'San_Francisco_Maritime_National_Historical_Park'
p59
aS'Alamo_Square'
p60
aS'Ghirardelli_Square'
p61
aS'San_Francisco_Opera'
p62
aS'Westfield_San_Francisco_Centre'
p63
aS'Bay_City_Bike_Rentals_and_Tours'
p64
aS'Basically_Free_Bike_Rentals'
p65
aS'Blazing_Saddles_Bike_Rentals_and_Tours'
p66
aS'Chinatown'
p67
aS'Electric_Tour_Company_Segway_Tours'
p68
aS'City_Segway_Tours_San_Francisco'
p69
aS'San_Francisco_Segway_Tours'
p70
aS'SS_Jeremiah_O_Brien'
p71
aS'Marrakech_Magic_Theater'
p72
aS'Beach_Blanket_Babylon'
p73
aS'San_Francisco_Playhouse'
p74
aS'San_Francisco_Love_Tours'
p75
aS'The_Hostel_Van'
p76
aS'Golden_Horizon_Tours'
p77
aS'San_Francisco_Zoo'
p78
aS'San_Francisco_Symphony'
p79
aS'Painted_Ladies'
p80
aS'Haight_Ashbury'
p81
aS'Mission_Dolores_Park'
p82
aS'Powell_and_Market_Cable_Car_Turnaround'
p83
aS'Cliff_House'
p84
aS'Market_Street_Railway'
p85
aS'GoCar_GPS_Guided_Tours'
p86
aS'Madame_Tussauds_San_Francisco'
p87
aS'Big_Bus_Tours'
p88
aS'City_Sightseeing_San_Francisco'
p89
aS'Sutro_Baths'
p90
aS'Aquarium_of_the_Bay'
p91
aS'Ocean_Beach'
p92
aS'Conservatory_of_Flowers'
p93
aS'Yerba_Buena_Gardens'
p94
aS'North_Beach'
p95
aS'San_Francisco_Movie_Tours'
p96
aS'Little_Italy'
p97
aS'Orpheum_Theatre'
p98
aS'Mission_District'
p99
aS'Telegraph_Hill'
p100
aS'Mission_Dolores'
p101
aS'Fort_Funston'
p102
aS'Market_Street'
p103
aS'San_Francisco_Ballet'
p104
aS'The_San_Francisco_Dungeon'
p105
aS'Russian_Hill'
p106
aS'Japantown'
p107
aS'Nob_Hill'
p108
aS'EscapeSF'
p109
aS'Palace_Games'
p110
aS'PanIQ_Room_San_Francisco'
p111
aS'Treasure_Island'
p112
aS'Transamerica_Pyramid'
p113
aS'Wells_Fargo_History_Museum'
p114
aS'Marina_District'
p115
aS'Moscone_Center'
p116
aS'Buena_Vista'
p117
aS'The_View_Lounge'
p118
aS'The_Saloon'
p119
aS'St_Mary_s_Cathedral'
p120
aS'Urban_Hiker_SF_Day_Tours'
p121
aS'Tours_By_Lily'
p122
aS'Redwood_Ramblers'
p123
aS'All_About_Chinatown_Walking_Tours'
p124
aS'Union_Street'
p125
aS'Civic_Center'
p126
aS'Balmy_Alley_Murals'
p127
aS'Bay_Area_Rapid_Transit'
p128
aS'Fort_Mason_Center'
p129
aS'The_Beat_Museum'
p130
aS'Sea_Lion_Center'
p131
aS'Glide_Memorial_United_Methodist_Church'
p132
aS'Washington_Square'
p133
aS'SS_Peter_and_Paul_Church'
p134
aS'Japan_Center'
p135
aS'Haight_Street'
p136
aS'Pier_7'
p137
aS'Pacific_Heights'
p138
aS'Fillmore_Street'
p139
aS'Off_the_Grid'
p140
aS'War_Memorial_Opera_House'
p141
aS'Custom_Made_Theatre'
p142
aS'China_Beach'
p143
aS'San_Francisco_Public_Library'
p144
aS'Billy_Goat_Hill_Park'
p145
aS'Castro_Theatre'
p146
aS'Alamo_Drafthouse_Cinema'
p147
aS'Metreon'
p148
aS'Nordstrom'
p149
aS'San_Francisco_Fishing_Charter'
p150
aS'San_Francisco_Crabbing_Crew'
p151
aS'Wild_Wave_Sportfishing'
p152
aS'Project_Zen_Massage_and_Bodywork'
p153
aS'Kabuki_Springs_and_Spa'
p154
aS'Royal_Thai_Spa'
p155
aS'Stow_Lake'
p156
aS'Contemporary_Jewish_Museum'
p157
aS'SFJazz_Center'
p158
aS'GLBT_History_Museum'
p159
aS'Cartoon_Art_Museum'
p160
aS'Louise_M_Davies_Symphony_Hall'
p161
aS'Grand_View_Park'
p162
aS'The_Coastal_Trail'
p163
aS'The_Masonic'
p164
aS'Ripley_s_Believe_It_or_Not_San_Francisco'
p165
aS'San_Francisco_Railway_Museum'
p166
aS'Children_s_Creativity_Museum'
p167
aS'Treasure_Island_Flea_Market'
p168
aS'Shakespeare_Garden'
p169
aS'Local_Brewing_Co'
p170
aS'Old_Cathedral_of_St_Mary'
p171
aS'Candlestick_Park'
p172
aS'Best_Tours_San_Francisco'
p173
aS'SF_Adventure_Tours'
p174
aS'SFO_Museum'
p175
aS'Buena_Vista_Park'
p176
aS'Haas_Lilienthal_House'
p177
aS'Sports_Basement_Outdoors_Day_Tours'
p178
aS'Greenwich_Steps'
p179
aS'7D_Experience'
p180
aS'Magowan_s_Infinite_Mirror_Maze'
p181
aS'San_Franciscso_Visitor_Information_Center'
p182
aS'San_Francisco_Art_Institute'
p183
aS'Martin_Luther_King_Jr_Memorial_and_Waterfall'
p184
aS'St_Patrick_Catholic_Church'
p185
aS'Steinhart_Aquarium'
p186
aS'Embarcadero_Center'
p187
aS'Wine_Country_Tour_Shuttle'
p188
aS'SFMTA'
p189
aS'Cabrio_Taxi_Pedicabs'
p190
aS'Anchor_Brewing_Company'
p191
aS'Heath_Ceramics_Factory_Tours'
p192
aS'Basic_Brown_Bear_Factory'
p193
aS'Hayes_Valley'
p194
aS'Fort_Mason_the_Great_Meadow'
p195
aS'American_Conservatory_Theater'
p196
aS'Bernal_Heights'
p197
aS'Clarion_Alley_Murals'
p198
aS'Panhandle_Golden_Gate_Park'
p199
aS'Museum_of_the_African_Diaspora'
p200
aS'Xanadu_Gallery_V_C_Morris_Gift_Shop'
p201
aS'Aquatic_Park'
p202
aS'Angel_Island_Immigration_Station'
p203
aS'SF_Armory'
p204
aS'Levi_s_Plaza_Park'
p205
aS'Lyon_Street_Steps'
p206
aS'Pepper_Palace'
p207
aS'Marina_Green'
p208
aS'Museum_Hack_SF'
p209
aS'Heart_of_the_City_Farmers_Market'
p210
aS'Warfield_Theater'
p211
aS'San_Francisco_Bay_Trail'
p212
aS'Biscuits_and_Blues'
p213
aS'Pier_23_Cafe'
p214
aS'Lou_s_Fish_Shack'
p215
aS'Women_s_Building_Mural'
p216
aS'Autodesk_Gallery'
p217
aS'Noe_Valley'
p218
aS'Sutro_Heights_Park'
p219
aS'Corona_Heights'
p220
aS'Saks_Fifth_Avenue'
p221
aS'Beach_Chalet'
p222
aS'Lincoln_Park'
p223
aS'Presidio_Golf_Course'
p224
aS'Lincoln_Park_Golf_Course'
p225
aS'The_National_Shrine_of_Saint_Francis_of_Assisi'
p226
aS'Camera_Obscura'
p227
aS'Chinese_Historical_Society_of_America'
p228
aS'Lafayette_Park'
p229
aS'Rodney_Lough_Jr_San_Francisco_Gallery'
p230
aS'SoMa_South_of_Market_Street'
p231
aS'Far_Fung_Places'
p232
aS'Fort_Baker'
p233
aS'Sigmund_Stern_Grove'
p234
aS'BATS_Improv'
p235
aS'Macondray_Lane'
p236
aS'RocketBoat'
p237
aS'Golden_Gate_Park_Carousel'
p238
aS'Lucky_Strike_San_Francisco'
p239
aS'City_Running_Tours'
p240
aS'Explore_San_Francisco_Tours'
p241
aS'San_Francisco_Running_Tours'
p242
aS'National_AIDS_Memorial_Grove'
p243
aS'Don_Edwards_San_Francisco_Bay_Wildlife_Refuge'
p244
aS'Mount_Davidson'
p245
aS'Hendric_Point'
p246
aS'Neiman_Marcus'
p247
aS'San_Francisco_National_Cemetery'
p248
aS'Yerba_Buena_Center_for_the_Arts'
p249
aS'Huntington_Park'
p250
aS'Pioneer_s_Monument'
p251
aS'Grateful_Dead_House'
p252
aS'Golden_Gate_Park_Windmills_Tulips'
p253
aS'Twin_Peaks_Tavern'
p254
aS'440_Castro'
p255
aS'Cinch_Saloon'
p256
aS'The_Wave_Organ'
p257
aS'Cellarmaker_Brewing_Company'
p258
aS'Pacific_Union_Club'
p259
aS'Columbus_Avenue'
p260
aS'SHN_Curran_Theatre'
p261
aS'Glad_Tidings_Church'
p262
aS'Diego_Rivera_Mural'
p263
aS'Winery_Collective'
p264
aS'Stockton_Street'
p265
aS'Harvey_Milk_Plaza'
p266
aS'Speakeasy_Ales_Lagers'
p267
aS'Queen_Wilhelmina_Garden'
p268
aS'Cow_Hollow'
p269
aS'Neptune_Society_Columbarium'
p270
aS'California_Historical_Society'
p271
aS'The_Bay_Lights'
p272
aS'California_Welcome_Center'
p273
aS'Potrero_Hill'
p274
aS'San_Francisco_Whale_Tours'
p275
aS'Oceanic_Society_Farallon_Islands_Whale_Watching'
p276
aS'SF_Bay_Whale_Watching'
p277
aS'NextArts'
p278
aS'Sentinel_Building'
p279
aS'Morrison_Planetarium'
p280
aS'USS_San_Francisco_Memorial'
p281
aS'International_Art_Museum_of_America'
p282
aS'Press_Club'
p283
aS'Golden_Gate_Theatre'
p284
aS'Cobb_s_Comedy_Club'
p285
aS'Punch_Line'
p286
aS'The_Marsh'
p287
aS'Stonestown_Galleria'
p288
aS'Lake_Merced'
p289
aS'Eurasian_Interiors_Chinese_Antiques_Furniture'
p290
aS'Jack_Early_Park'
p291
aS'Tank_Hill'
p292
aS'Top_of_Broadway_District'
p293
aS'Asia_Society_and_Museum'
p294
aS'Isla_Studio_Photography_Classes'
p295
aS'The_Cheese_School_of_San_Francisco'
p296
aS'San_Francisco_History_Museum'
p297
aS'Vermont_Street'
p298
aS'The_Promenade'
p299
aS'San_Francisco_Flower_Mart'
p300
aS'Treasure_Island_Wines'
p301
aS'Wonders_of_Tibet'
p302
aS'Holy_Virgin_Cathedral'
p303
aS'Waterfront_Playground_at_Sue_Bierman_Park'
p304
aS'Queen_Anne_Victorians'
p305
aS'San_Francisco_Art_Exchange'
p306
aS'Pioneer_Park'
p307
aS'Marshall_s_Beach'
p308
aS'Franklin_Bowles_Gallery'
p309
aS'The_Mechanics_Monument'
p310
aS'Sutro_Tower'
p311
aS'SF_Chinatown_Ghost_Tours'
p312
aS'San_Francisco_Ghost_Hunt'
p313
aS'Haunted_Haight_Walking_Tour'
p314
aS'Eden_Fine_Art'
p315
aS'Julius_Kahn_Playground'
p316
aS'Marines_Memorial_Theater'
p317
aS'Museum_of_Craft_and_Design'
p318
aS'Presidio_Theatre'
p319
aS'Book_Passage'
p320
aS'Transamerica_Redwood_Park'
p321
aS'San_Francisco_Shuttle_Tours'
p322
aS'Bike_View_Bicycle_Rentals_and_Tours'
p323
aS'Francis_Lefty_O_Doul_Bridge'
p324
aS'Alemany_Flea_Market'
p325
aS'Laurel_Village_Shopping_Center'
p326
aS'Vinicola_de_Coppola'
p327
aS'Jackson_Square'
p328
aS'Admission_s_Day_Statue'
p329
aS'Circus_Center'
p330
aS'Kiku_Imports'
p331
aS'Museo_Italo_Americano'
p332
aS'Bay_Area_Ridge_Trail'
p333
aS'Embarcadero_Center_Cinema'
p334
aS'Mission_Bay_Conference_Center_at_UCSF'
p335
aS'Richmond_District'
p336
aS'Pier_24_Photography_Museum'
p337
aS'TIX_Bay_Area'
p338
aS'Juan_Bautista_de_Anza_National_Historic_Trail'
p339
aS'South_Bay'
p340
aS'Maison_Bleu_Maxime_Le_Forestier'
p341
aS'Spreckels_Lake'
p342
aS'Mount_Sutro_Forest'
p343
aS'ZK_Gallery'
p344
aS'Napier_Lane'
p345
aS'Vulcan_Steps'
p346
aS'Saint_Boniface_Catholic_Church'
p347
aS'1AM_Gallery'
p348
aS'Martin_Lawrence_Galleries'
p349
aS'Swedenborgian_Church'
p350
aS'Kite_Hill_Open_Space'
p351
aS'Fillmore_Auditorium'
p352
aS'Philharmonia_Baroque_Orchestra'
p353
aS'Old_First_Concerts'
p354
aS'Upper_Grant_Avenue'
p355
aS'Art_for_Children_at_the_de_Young_Museum'
p356
aS'Pacific_Heritage_Museum_of_San_Francisco'
p357
aS'Victoria_Theatre'
p358
aS'Aviation_Museum_Library'
p359
aS'1_5_mile_Coastal_Trail'
p360
aS'Cole_Valley'
p361
aS'450_Sutter_Building'
p362
aS'Custom_House'
p363
aS'Strawberry_Hill'
p364
aS'Spreckels_Mansion'
p365
aS'Letterform_Archive'
p366
aS'Dennis_Rae_Fine_Art'
p367
aS'Holy_Trinity_Greek_Orthodox_Church'
p368
aS'Bliss_Dance_Esculture'
p369
aS'Galeria_de_la_Raza'
p370
aS'Artillery_Apparel_Gallery'
p371
aS'Boxcar_Theatre'
p372
aS'Moore_Road_Pier'
p373
aS'Teuscher_Chocolates_of_Switzerland'
p374
aS'Gordon_Parks_Centennial'
p375
aS'Church_of_St_John_Coltrane'
p376
aS'Red_Poppy_Art_House'
p377
aS'Temple_Emanu_El'
p378
aS'Norras_Temple'
p379
aS'Konko_Church_of_San_Francisco'
p380
aS'Images_of_the_North'
p381
aS'Catharine_Clark_Gallery'
p382
aS'Sanchez_Street'
p383
aS'Lyon_Street'
p384
aS'San_Francisco_Performing_Arts_Library_Museum'
p385
aS'The_Mexican_Museum'
p386
aS'Bluxome_Street_Winery'
p387
aS'Kezar_Stadium'
p388
aS'Arelious_Walker_Stairway'
p389
aS'Randall_Museum'
p390
aS'Dolores_Heights'
p391
aS'Tony_n_Tina_s_Wedding'
p392
aS'18th_Amendment_Speakeasy_Dinner'
p393
aS'The_Barbary_Coast_Revue'
p394
aS'Jefferson_Airplane_House'
p395
aS'Eureka_Steam_Ferry'
p396
aS'St_Mary_s_Square'
p397
aS'Banker_s_Heart'
p398
aS'Kong_Chow_Temple'
p399
aS'San_Francisco_Kayak_Adventures'
p400
aS'City_Kayak'
p401
aS'Clay_Theater'
p402
aS'St_Mark_s_Lutheran_Church'
p403
aS'SOMArts'
p404
aS'Urban_Dharma_Dharma_Punx'
p405
aS'Harry_Steps'
p406
aS'San_Francisco_Brewing_Company'
p407
aS'San_Francisco_History_Room_and_Archives'
p408
aS'Mission_Cliffs'
p409
aS'Embarcadero_Branch_YMCA'
p410
aS'Elevate_Group_Fitness'
p411
aS'Dragon_s_Gate'
p412
aS'Occidental_Cigar_Club'
p413
aS'49_Geary_Street_Art_Galleries'
p414
aS'Raygun_Gothic_Rocketship_Pier_14'
p415
aS'Mission_Creek_Park'
p416
aS'Golden_Gate_Park_Tennis_Center'
p417
aS'Museum_of_Vision'
p418
aS'Velvet_Da_Vinci'
p419
aS'The_Mint_Karaoke_Lounge'
p420
aS'Pandora_Karaoke_Bar'
p421
aS'Gordon_Biersch'
p422
aS'South_Park'
p423
aS'Hiking_Yoga'
p424
aS'Satori_Yoga_Studio'
p425
aS'Yoga_Flow_SF_OCEAN'
p426
aS'Tastebud_Tours_San_Francisco_Food_Tours'
p427
aS'18reasons'
p428
aS'Bleu_Ribbon_Kitchen_Le_Cordon_Bleu_San_Francisco_Campus'
p429
aS'SFFD_Fire_Museum'
p430
aS'California_Land_Safari_AM_PM_Tours'
p431
aS'Candlestick_Point_State_Recreation_Area'
p432
aS'Ten_Ren_Tea_Co_Ltd'
p433
aS'Herbst_Theatre'
p434
aS'Shop_and_the_City_Tour'
p435
aS'Glamour_Girl_Shopping_Tours'
p436
aS'John_McLaren_Park'
p437
aS'Nourse_Theatre'
p438
aS'Mohandas_K_Gandhi_Gandhi_Statue'
p439
aS'Coastal_Walkers'
p440
aS'San_Francisco_Federal_Building'
p441
aS'Golden_Gate_Jeep_Tours'
p442
aS'New_United_States_Mint'
p443
aS'Defenestration_Building'
p444
aS'Museum_of_Craft_and_Folk_Art'
p445
aS'12_Gallagher_Lane'
p446
aS'Dubbelju_Motorcycle_Rentals'
p447
aS'Motorcycle_Rides_with_Bobby'
p448
aS'CLASH_Scavenger_Hunts'
p449
aS'Watson_Adventures_Scavenger_Hunts_San_Francisco'
p450
aS'Finding_San_Francisco_A_Scavenger_Tour'
p451
aS'Welcome_Limousine_Service'
p452
aS'Marina_Veronica_Art_Fashion_Tours'
p453
aS'Abaluche_Wine_Company'
p454
aS'Gallery_444'
p455
aS'San_Francisco_Pride'
p456
aS'Outside_Lands'
p457
aS'Hardly_Strictly_Bluegrass_Festival'
p458
aS'Vedanta_Society_of_Northern_California'
p459
aS'James_R_Browning_United_States_Courthouse'
p460
aS'Timbuk2_Factory_Store'
p461
aS'AlSabeel_Noor_Al_Islam_Mosque'
p462
aS'Art_Attack_SF'
p463
aS'Chloe_Gallery'
p464
aS'Gallery_925'
p465
aS'African_American_Art_Culture_Complex'
p466
aS'EXIT_Theatre'
p467
aS'Stein_Family_Wines'
p468
aS'Mashouf_Performing_Arts_Center'
p469
aS'Hua_Zang_Si'
p470
aS'BAPS_Shri_Swaminarayan_Mandir'
p471
aS'Grand_Central_Station_Antiques'
p472
aS'Fouladi_Projects'
p473
aS'The_Distilled_Man'
p474
aS'ABC_s_7Live_Voice_Box'
p475
aS'Concourse_Exhibition_Center'
p476
aS'Saturn_Steps'
p477
aS'Intersection_for_the_Arts'
p478
aS'Society_of_California_Pioneers'
p479
aS'Labyrinth_of_Cultures'
p480
aS'Phoenix_Gallery'
p481
aS'Buddha_s_Universal_Church'
p482
aS'San_Francisco_African_American_Historical_Cultural_Society'
p483
aS'Allyne_Park'
p484
aS'Walter_S_Johnson_Park'
p485
aS'Meyerovich_Gallery'
p486
aS'Maxwell_Galleries'
p487
aS'Hang'
p488
aS'Fraenkel_Gallery'
p489
aS'Eleonore_Austerer_Gallery'
p490
aS'Atelier_Dore'
p491
aS'Russian_Center_of_San_Francisco'
p492
aS'381_G_Gallery'
p493
aS'Gallery_of_Ethnic_Art'
p494
aS'Grand_Pacheco_Stairway'
p495
aS'Upper_Fillmore'
p496
aS'Bullock_and_Jones'
p497
aS'Wolf_Ridge_Loop'
p498
aS'Upper_Market'
p499
aS'McLellan_Botanicals'
p500
aS'Telephone_Pioneers_Communication_Museum'
p501
aS'Ecology_Trail'
p502
aS'Redwood_Empire_Association'
p503
aa(lp504
V/Attraction_Review-g60713-d145240-Reviews-Chinese_Culture_Center-San_Francisco_California.html
p505
aV/Attraction_Review-g60713-d102523-Reviews-Alcatraz-San_Francisco_California.html
p506
aV/Attraction_Review-g60713-d104675-Reviews-Golden_Gate_Bridge-San_Francisco_California.html
p507
aV/Attraction_Review-g60713-d557330-Reviews-AT_T_Park-San_Francisco_California.html
p508
aV/Attraction_Review-g60713-d106745-Reviews-San_Francisco_Bay-San_Francisco_California.html
p509
aV/Attraction_Review-g60713-d1444435-Reviews-Dylan_s_Tours-San_Francisco_California.html
p510
aV/Attraction_Review-g60713-d1924754-Reviews-Streets_of_San_Francisco_Bike_Tours-San_Francisco_California.html
p511
aV/Attraction_Review-g60713-d1164225-Reviews-Urban_Trek_USA-San_Francisco_California.html
p512
aV/Attraction_Review-g60713-d3313642-Reviews-Wild_SF_Walking_Tours-San_Francisco_California.html
p513
aV/Attraction_Review-g60713-d1886475-Reviews-The_Real_S_F_Tour-San_Francisco_California.html
p514
aV/Attraction_Review-g60713-d311684-Reviews-Golden_Gate_Park-San_Francisco_California.html
p515
aV/Attraction_Review-g60713-d117409-Reviews-Lands_End-San_Francisco_California.html
p516
aV/Attraction_Review-g60713-d105363-Reviews-Twin_Peaks-San_Francisco_California.html
p517
aV/Attraction_Review-g60713-d102775-Reviews-The_Exploratorium-San_Francisco_California.html
p518
aV/Attraction_Review-g60713-d104538-Reviews-Palace_of_Fine_Arts-San_Francisco_California.html
p519
aV/Attraction_Review-g60713-d1556974-Reviews-Walt_Disney_Family_Museum-San_Francisco_California.html
p520
aV/Attraction_Review-g60713-d117078-Reviews-California_Academy_of_Sciences-San_Francisco_California.html
p521
aV/Attraction_Review-g60713-d156333-Reviews-Legion_of_Honor-San_Francisco_California.html
p522
aV/Attraction_Review-g60713-d104821-Reviews-Cable_Cars-San_Francisco_California.html
p523
aV/Attraction_Review-g60713-d104939-Reviews-Cable_Car_Museum-San_Francisco_California.html
p524
aV/Attraction_Review-g60713-d104542-Reviews-Musee_Mecanique-San_Francisco_California.html
p525
aV/Attraction_Review-g60713-d144990-Reviews-Crissy_Field-San_Francisco_California.html
p526
aV/Attraction_Review-g60713-d106232-Reviews-Lombard_Street-San_Francisco_California.html
p527
aV/Attraction_Review-g60713-d1539348-Reviews-Green_Dream_Tours_Wine_Country_Tour_Specialist-San_Francisco_California.html
p528
aV/Attraction_Review-g60713-d5478019-Reviews-Vantigo_Tours-San_Francisco_California.html
p529
aV/Attraction_Review-g60713-d2285445-Reviews-Green_Hills_Wine_Tours-San_Francisco_California.html
p530
aV/Attraction_Review-g60713-d128930-Reviews-Presidio_of_San_Francisco-San_Francisco_California.html
p531
aV/Attraction_Review-g60713-d127943-Reviews-De_Young_Museum-San_Francisco_California.html
p532
aV/Attraction_Review-g60713-d102779-Reviews-Pier_39-San_Francisco_California.html
p533
aV/Attraction_Review-g60713-d1174589-Reviews-Incredible_Adventures_Day_Tours-San_Francisco_California.html
p534
aV/Attraction_Review-g60713-d940219-Reviews-Silver_Lion_Service_Private_Tours-San_Francisco_California.html
p535
aV/Attraction_Review-g60713-d143136-Reviews-Fort_Point_National_Historic_Site-San_Francisco_California.html
p536
aV/Attraction_Review-g60713-d754023-Reviews-Baker_Beach-San_Francisco_California.html
p537
aV/Attraction_Review-g60713-d103851-Reviews-Ferry_Building_Marketplace-San_Francisco_California.html
p538
aV/Attraction_Review-g60713-d103857-Reviews-Asian_Art_Museum-San_Francisco_California.html
p539
aV/Attraction_Review-g60713-d104544-Reviews-City_Lights_Booksellers-San_Francisco_California.html
p540
aV/Attraction_Review-g60713-d208341-Reviews-Angel_Island_State_Park-San_Francisco_California.html
p541
aV/Attraction_Review-g60713-d116450-Reviews-Grace_Cathedral-San_Francisco_California.html
p542
aV/Attraction_Review-g60713-d282299-Reviews-Ferry_Plaza_Farmer_s_Market-San_Francisco_California.html
p543
aV/Attraction_Review-g60713-d108678-Reviews-Fisherman_s_Wharf-San_Francisco_California.html
p544
aV/Attraction_Review-g60713-d156469-Reviews-Golden_Gate_Promenade-San_Francisco_California.html
p545
aV/Attraction_Review-g60713-d3440316-Reviews-16th_Avenue_Tiled_Steps-San_Francisco_California.html
p546
aV/Attraction_Review-g60713-d142415-Reviews-Japanese_Tea_Garden-San_Francisco_California.html
p547
aV/Attraction_Review-g60713-d3171289-Reviews-Bay_Voyager-San_Francisco_California.html
p548
aV/Attraction_Review-g60713-d4023404-Reviews-Alcatraz_Cruises_LLC-San_Francisco_California.html
p549
aV/Attraction_Review-g60713-d653292-Reviews-Red_and_White_Fleet-San_Francisco_California.html
p550
aV/Attraction_Review-g60713-d104952-Reviews-San_Francisco_Botanical_Garden-San_Francisco_California.html
p551
aV/Attraction_Review-g60713-d144407-Reviews-San_Francisco_City_Hall-San_Francisco_California.html
p552
aV/Attraction_Review-g60713-d104674-Reviews-Coit_Tower-San_Francisco_California.html
p553
aV/Attraction_Review-g60713-d104530-Reviews-USS_Pampanito-San_Francisco_California.html
p554
aV/Attraction_Review-g60713-d103850-Reviews-The_Embarcadero-San_Francisco_California.html
p555
aV/Attraction_Review-g60713-d2478094-Reviews-Avital_Food_Tours-San_Francisco_California.html
p556
aV/Attraction_Review-g60713-d654621-Reviews-Local_Tastes_of_the_City_Tours-San_Francisco_California.html
p557
aV/Attraction_Review-g60713-d4145797-Reviews-Sidewalk_Food_Tours_of_San_Francisco-San_Francisco_California.html
p558
aV/Attraction_Review-g60713-d142463-Reviews-Filbert_Steps-San_Francisco_California.html
p559
aV/Attraction_Review-g60713-d526082-Reviews-Scenic_49_Mile_Drive-San_Francisco_California.html
p560
aV/Attraction_Review-g60713-d183745-Reviews-The_Castro-San_Francisco_California.html
p561
aV/Attraction_Review-g60713-d104217-Reviews-San_Francisco_Maritime_National_Historical_Park-San_Francisco_California.html
p562
aV/Attraction_Review-g60713-d156290-Reviews-Alamo_Square-San_Francisco_California.html
p563
aV/Attraction_Review-g60713-d104680-Reviews-Ghirardelli_Square-San_Francisco_California.html
p564
aV/Attraction_Review-g60713-d142412-Reviews-San_Francisco_Opera-San_Francisco_California.html
p565
aV/Attraction_Review-g60713-d1987350-Reviews-Westfield_San_Francisco_Centre-San_Francisco_California.html
p566
aV/Attraction_Review-g60713-d1740353-Reviews-Bay_City_Bike_Rentals_and_Tours-San_Francisco_California.html
p567
aV/Attraction_Review-g60713-d8290737-Reviews-Basically_Free_Bike_Rentals-San_Francisco_California.html
p568
aV/Attraction_Review-g60713-d1196897-Reviews-Blazing_Saddles_Bike_Rentals_and_Tours-San_Francisco_California.html
p569
aV/Attraction_Review-g60713-d108679-Reviews-Chinatown-San_Francisco_California.html
p570
aV/Attraction_Review-g60713-d578357-Reviews-Electric_Tour_Company_Segway_Tours-San_Francisco_California.html
p571
aV/Attraction_Review-g60713-d1118073-Reviews-City_Segway_Tours_San_Francisco-San_Francisco_California.html
p572
aV/Attraction_Review-g60713-d5426220-Reviews-San_Francisco_Segway_Tours-San_Francisco_California.html
p573
aV/Attraction_Review-g60713-d104529-Reviews-SS_Jeremiah_O_Brien-San_Francisco_California.html
p574
aV/Attraction_Review-g60713-d2098477-Reviews-Marrakech_Magic_Theater-San_Francisco_California.html
p575
aV/Attraction_Review-g60713-d142394-Reviews-Beach_Blanket_Babylon-San_Francisco_California.html
p576
aV/Attraction_Review-g60713-d1873656-Reviews-San_Francisco_Playhouse-San_Francisco_California.html
p577
aV/Attraction_Review-g60713-d7188589-Reviews-San_Francisco_Love_Tours-San_Francisco_California.html
p578
aV/Attraction_Review-g60713-d7798890-Reviews-The_Hostel_Van-San_Francisco_California.html
p579
aV/Attraction_Review-g60713-d1638509-Reviews-Golden_Horizon_Tours-San_Francisco_California.html
p580
aV/Attraction_Review-g60713-d127854-Reviews-San_Francisco_Zoo-San_Francisco_California.html
p581
aV/Attraction_Review-g60713-d142413-Reviews-San_Francisco_Symphony-San_Francisco_California.html
p582
aV/Attraction_Review-g60713-d104540-Reviews-Painted_Ladies-San_Francisco_California.html
p583
aV/Attraction_Review-g60713-d103856-Reviews-Haight_Ashbury-San_Francisco_California.html
p584
aV/Attraction_Review-g60713-d545911-Reviews-Mission_Dolores_Park-San_Francisco_California.html
p585
aV/Attraction_Review-g60713-d3670548-Reviews-Powell_and_Market_Cable_Car_Turnaround-San_Francisco_California.html
p586
aV/Attraction_Review-g60713-d615578-Reviews-Cliff_House-San_Francisco_California.html
p587
aV/Attraction_Review-g60713-d104964-Reviews-Market_Street_Railway-San_Francisco_California.html
p588
aV/Attraction_Review-g60713-d562111-Reviews-GoCar_GPS_Guided_Tours-San_Francisco_California.html
p589
aV/Attraction_Review-g60713-d6853209-Reviews-Madame_Tussauds_San_Francisco-San_Francisco_California.html
p590
aV/Attraction_Review-g60713-d2547559-Reviews-Big_Bus_Tours-San_Francisco_California.html
p591
aV/Attraction_Review-g60713-d1544705-Reviews-City_Sightseeing_San_Francisco-San_Francisco_California.html
p592
aV/Attraction_Review-g60713-d3242904-Reviews-Sutro_Baths-San_Francisco_California.html
p593
aV/Attraction_Review-g60713-d527436-Reviews-Aquarium_of_the_Bay-San_Francisco_California.html
p594
aV/Attraction_Review-g60713-d128875-Reviews-Ocean_Beach-San_Francisco_California.html
p595
aV/Attraction_Review-g60713-d117151-Reviews-Conservatory_of_Flowers-San_Francisco_California.html
p596
aV/Attraction_Review-g60713-d104943-Reviews-Yerba_Buena_Gardens-San_Francisco_California.html
p597
aV/Attraction_Review-g60713-d110239-Reviews-North_Beach-San_Francisco_California.html
p598
aV/Attraction_Review-g60713-d797856-Reviews-San_Francisco_Movie_Tours-San_Francisco_California.html
p599
aV/Attraction_Review-g60713-d142403-Reviews-Little_Italy-San_Francisco_California.html
p600
aV/Attraction_Review-g60713-d156586-Reviews-Orpheum_Theatre-San_Francisco_California.html
p601
aV/Attraction_Review-g60713-d220163-Reviews-Mission_District-San_Francisco_California.html
p602
aV/Attraction_Review-g60713-d105361-Reviews-Telegraph_Hill-San_Francisco_California.html
p603
aV/Attraction_Review-g60713-d220164-Reviews-Mission_Dolores-San_Francisco_California.html
p604
aV/Attraction_Review-g60713-d255292-Reviews-Fort_Funston-San_Francisco_California.html
p605
aV/Attraction_Review-g60713-d144424-Reviews-Market_Street-San_Francisco_California.html
p606
aV/Attraction_Review-g60713-d142414-Reviews-San_Francisco_Ballet-San_Francisco_California.html
p607
aV/Attraction_Review-g60713-d6853220-Reviews-The_San_Francisco_Dungeon-San_Francisco_California.html
p608
aV/Attraction_Review-g60713-d105362-Reviews-Russian_Hill-San_Francisco_California.html
p609
aV/Attraction_Review-g60713-d156533-Reviews-Japantown-San_Francisco_California.html
p610
aV/Attraction_Review-g60713-d110240-Reviews-Nob_Hill-San_Francisco_California.html
p611
aV/Attraction_Review-g60713-d7542440-Reviews-EscapeSF-San_Francisco_California.html
p612
aV/Attraction_Review-g60713-d8141758-Reviews-Palace_Games-San_Francisco_California.html
p613
aV/Attraction_Review-g60713-d7340302-Reviews-PanIQ_Room_San_Francisco-San_Francisco_California.html
p614
aV/Attraction_Review-g60713-d275174-Reviews-Treasure_Island-San_Francisco_California.html
p615
aV/Attraction_Review-g60713-d144408-Reviews-Transamerica_Pyramid-San_Francisco_California.html
p616
aV/Attraction_Review-g60713-d145245-Reviews-Wells_Fargo_History_Museum-San_Francisco_California.html
p617
aV/Attraction_Review-g60713-d108312-Reviews-Marina_District-San_Francisco_California.html
p618
aV/Attraction_Review-g60713-d1419804-Reviews-Moscone_Center-San_Francisco_California.html
p619
aV/Attraction_Review-g60713-d156322-Reviews-Buena_Vista-San_Francisco_California.html
p620
aV/Attraction_Review-g60713-d156711-Reviews-The_View_Lounge-San_Francisco_California.html
p621
aV/Attraction_Review-g60713-d532000-Reviews-The_Saloon-San_Francisco_California.html
p622
aV/Attraction_Review-g60713-d156662-Reviews-St_Mary_s_Cathedral-San_Francisco_California.html
p623
aV/Attraction_Review-g60713-d3404892-Reviews-Urban_Hiker_SF_Day_Tours-San_Francisco_California.html
p624
aV/Attraction_Review-g60713-d6438277-Reviews-Tours_By_Lily-San_Francisco_California.html
p625
aV/Attraction_Review-g60713-d8291235-Reviews-Redwood_Ramblers-San_Francisco_California.html
p626
aV/Attraction_Review-g60713-d447045-Reviews-All_About_Chinatown_Walking_Tours-San_Francisco_California.html
p627
aV/Attraction_Review-g60713-d127868-Reviews-Union_Street-San_Francisco_California.html
p628
aV/Attraction_Review-g60713-d104215-Reviews-Civic_Center-San_Francisco_California.html
p629
aV/Attraction_Review-g60713-d2155273-Reviews-Balmy_Alley_Murals-San_Francisco_California.html
p630
aV/Attraction_Review-g60713-d7715519-Reviews-Bay_Area_Rapid_Transit-San_Francisco_California.html
p631
aV/Attraction_Review-g60713-d311683-Reviews-Fort_Mason_Center-San_Francisco_California.html
p632
aV/Attraction_Review-g60713-d664393-Reviews-The_Beat_Museum-San_Francisco_California.html
p633
aV/Attraction_Review-g60713-d6352219-Reviews-Sea_Lion_Center-San_Francisco_California.html
p634
aV/Attraction_Review-g60713-d143985-Reviews-Glide_Memorial_United_Methodist_Church-San_Francisco_California.html
p635
aV/Attraction_Review-g60713-d104935-Reviews-Washington_Square-San_Francisco_California.html
p636
aV/Attraction_Review-g60713-d561131-Reviews-SS_Peter_and_Paul_Church-San_Francisco_California.html
p637
aV/Attraction_Review-g60713-d311688-Reviews-Japan_Center-San_Francisco_California.html
p638
aV/Attraction_Review-g60713-d213594-Reviews-Haight_Street-San_Francisco_California.html
p639
aV/Attraction_Review-g60713-d156590-Reviews-Pier_7-San_Francisco_California.html
p640
aV/Attraction_Review-g60713-d142482-Reviews-Pacific_Heights-San_Francisco_California.html
p641
aV/Attraction_Review-g60713-d156437-Reviews-Fillmore_Street-San_Francisco_California.html
p642
aV/Attraction_Review-g60713-d4520274-Reviews-Off_the_Grid-San_Francisco_California.html
p643
aV/Attraction_Review-g60713-d156729-Reviews-War_Memorial_Opera_House-San_Francisco_California.html
p644
aV/Attraction_Review-g60713-d8862933-Reviews-Custom_Made_Theatre-San_Francisco_California.html
p645
aV/Attraction_Review-g60713-d104539-Reviews-China_Beach-San_Francisco_California.html
p646
aV/Attraction_Review-g60713-d156656-Reviews-San_Francisco_Public_Library-San_Francisco_California.html
p647
aV/Attraction_Review-g60713-d9584251-Reviews-Billy_Goat_Hill_Park-San_Francisco_California.html
p648
aV/Attraction_Review-g60713-d270041-Reviews-Castro_Theatre-San_Francisco_California.html
p649
aV/Attraction_Review-g60713-d9563409-Reviews-Alamo_Drafthouse_Cinema-San_Francisco_California.html
p650
aV/Attraction_Review-g60713-d116546-Reviews-Metreon-San_Francisco_California.html
p651
aV/Attraction_Review-g60713-d156581-Reviews-Nordstrom-San_Francisco_California.html
p652
aV/Attraction_Review-g60713-d4258631-Reviews-San_Francisco_Fishing_Charter-San_Francisco_California.html
p653
aV/Attraction_Review-g60713-d8263808-Reviews-San_Francisco_Crabbing_Crew-San_Francisco_California.html
p654
aV/Attraction_Review-g60713-d6434371-Reviews-Wild_Wave_Sportfishing-San_Francisco_California.html
p655
aV/Attraction_Review-g60713-d4355467-Reviews-Project_Zen_Massage_and_Bodywork-San_Francisco_California.html
p656
aV/Attraction_Review-g60713-d104546-Reviews-Kabuki_Springs_and_Spa-San_Francisco_California.html
p657
aV/Attraction_Review-g60713-d2519584-Reviews-Royal_Thai_Spa-San_Francisco_California.html
p658
aV/Attraction_Review-g60713-d104942-Reviews-Stow_Lake-San_Francisco_California.html
p659
aV/Attraction_Review-g60713-d143983-Reviews-Contemporary_Jewish_Museum-San_Francisco_California.html
p660
aV/Attraction_Review-g60713-d3844100-Reviews-SFJazz_Center-San_Francisco_California.html
p661
aV/Attraction_Review-g60713-d603315-Reviews-GLBT_History_Museum-San_Francisco_California.html
p662
aV/Attraction_Review-g60713-d104946-Reviews-Cartoon_Art_Museum-San_Francisco_California.html
p663
aV/Attraction_Review-g60713-d156553-Reviews-Louise_M_Davies_Symphony_Hall-San_Francisco_California.html
p664
aV/Attraction_Review-g60713-d4180173-Reviews-Grand_View_Park-San_Francisco_California.html
p665
aV/Attraction_Review-g60713-d104643-Reviews-The_Coastal_Trail-San_Francisco_California.html
p666
aV/Attraction_Review-g60713-d8769965-Reviews-The_Masonic-San_Francisco_California.html
p667
aV/Attraction_Review-g60713-d2420049-Reviews-Ripley_s_Believe_It_or_Not_San_Francisco-San_Francisco_California.html
p668
aV/Attraction_Review-g60713-d631105-Reviews-San_Francisco_Railway_Museum-San_Francisco_California.html
p669
aV/Attraction_Review-g60713-d105415-Reviews-Children_s_Creativity_Museum-San_Francisco_California.html
p670
aV/Attraction_Review-g60713-d2615516-Reviews-Treasure_Island_Flea_Market-San_Francisco_California.html
p671
aV/Attraction_Review-g60713-d8779371-Reviews-Shakespeare_Garden-San_Francisco_California.html
p672
aV/Attraction_Review-g60713-d8777422-Reviews-Local_Brewing_Co-San_Francisco_California.html
p673
aV/Attraction_Review-g60713-d156584-Reviews-Old_Cathedral_of_St_Mary-San_Francisco_California.html
p674
aV/Attraction_Review-g60713-d2272999-Reviews-Candlestick_Park-San_Francisco_California.html
p675
aV/Attraction_Review-g60713-d5570219-Reviews-Best_Tours_San_Francisco-San_Francisco_California.html
p676
aV/Attraction_Review-g60713-d7698035-Reviews-SF_Adventure_Tours-San_Francisco_California.html
p677
aV/Attraction_Review-g60713-d2369254-Reviews-SFO_Museum-San_Francisco_California.html
p678
aV/Attraction_Review-g60713-d265128-Reviews-Buena_Vista_Park-San_Francisco_California.html
p679
aV/Attraction_Review-g60713-d127938-Reviews-Haas_Lilienthal_House-San_Francisco_California.html
p680
aV/Attraction_Review-g60713-d2311120-Reviews-Sports_Basement_Outdoors_Day_Tours-San_Francisco_California.html
p681
aV/Attraction_Review-g60713-d142465-Reviews-Greenwich_Steps-San_Francisco_California.html
p682
aV/Attraction_Review-g60713-d3443131-Reviews-7D_Experience-San_Francisco_California.html
p683
aV/Attraction_Review-g60713-d1783392-Reviews-Magowan_s_Infinite_Mirror_Maze-San_Francisco_California.html
p684
aV/Attraction_Review-g60713-d3505807-Reviews-San_Franciscso_Visitor_Information_Center-San_Francisco_California.html
p685
aV/Attraction_Review-g60713-d104648-Reviews-San_Francisco_Art_Institute-San_Francisco_California.html
p686
aV/Attraction_Review-g60713-d4318218-Reviews-Martin_Luther_King_Jr_Memorial_and_Waterfall-San_Francisco_California.html
p687
aV/Attraction_Review-g60713-d3564004-Reviews-St_Patrick_Catholic_Church-San_Francisco_California.html
p688
aV/Attraction_Review-g60713-d142466-Reviews-Steinhart_Aquarium-San_Francisco_California.html
p689
aV/Attraction_Review-g60713-d103853-Reviews-Embarcadero_Center-San_Francisco_California.html
p690
aV/Attraction_Review-g60713-d1074241-Reviews-Wine_Country_Tour_Shuttle-San_Francisco_California.html
p691
aV/Attraction_Review-g60713-d8051746-Reviews-SFMTA-San_Francisco_California.html
p692
aV/Attraction_Review-g60713-d2453088-Reviews-Cabrio_Taxi_Pedicabs-San_Francisco_California.html
p693
aV/Attraction_Review-g60713-d1009199-Reviews-Anchor_Brewing_Company-San_Francisco_California.html
p694
aV/Attraction_Review-g60713-d9718675-Reviews-Heath_Ceramics_Factory_Tours-San_Francisco_California.html
p695
aV/Attraction_Review-g60713-d103762-Reviews-Basic_Brown_Bear_Factory-San_Francisco_California.html
p696
aV/Attraction_Review-g60713-d217843-Reviews-Hayes_Valley-San_Francisco_California.html
p697
aV/Attraction_Review-g60713-d128838-Reviews-Fort_Mason_the_Great_Meadow-San_Francisco_California.html
p698
aV/Attraction_Review-g60713-d103932-Reviews-American_Conservatory_Theater-San_Francisco_California.html
p699
aV/Attraction_Review-g60713-d128979-Reviews-Bernal_Heights-San_Francisco_California.html
p700
aV/Attraction_Review-g60713-d7827116-Reviews-Clarion_Alley_Murals-San_Francisco_California.html
p701
aV/Attraction_Review-g60713-d3510297-Reviews-Panhandle_Golden_Gate_Park-San_Francisco_California.html
p702
aV/Attraction_Review-g60713-d588551-Reviews-Museum_of_the_African_Diaspora-San_Francisco_California.html
p703
aV/Attraction_Review-g60713-d561133-Reviews-Xanadu_Gallery_V_C_Morris_Gift_Shop-San_Francisco_California.html
p704
aV/Attraction_Review-g60713-d104950-Reviews-Aquatic_Park-San_Francisco_California.html
p705
aV/Attraction_Review-g60713-d255188-Reviews-Angel_Island_Immigration_Station-San_Francisco_California.html
p706
aV/Attraction_Review-g60713-d3478684-Reviews-SF_Armory-San_Francisco_California.html
p707
aV/Attraction_Review-g60713-d6212675-Reviews-Levi_s_Plaza_Park-San_Francisco_California.html
p708
aV/Attraction_Review-g60713-d156554-Reviews-Lyon_Street_Steps-San_Francisco_California.html
p709
aV/Attraction_Review-g60713-d6881987-Reviews-Pepper_Palace-San_Francisco_California.html
p710
aV/Attraction_Review-g60713-d545902-Reviews-Marina_Green-San_Francisco_California.html
p711
aV/Attraction_Review-g60713-d8556023-Reviews-Museum_Hack_SF-San_Francisco_California.html
p712
aV/Attraction_Review-g60713-d614219-Reviews-Heart_of_the_City_Farmers_Market-San_Francisco_California.html
p713
aV/Attraction_Review-g60713-d1582816-Reviews-Warfield_Theater-San_Francisco_California.html
p714
aV/Attraction_Review-g60713-d117150-Reviews-San_Francisco_Bay_Trail-San_Francisco_California.html
p715
aV/Attraction_Review-g60713-d156313-Reviews-Biscuits_and_Blues-San_Francisco_California.html
p716
aV/Attraction_Review-g60713-d104951-Reviews-Pier_23_Cafe-San_Francisco_California.html
p717
aV/Attraction_Review-g60713-d156552-Reviews-Lou_s_Fish_Shack-San_Francisco_California.html
p718
aV/Attraction_Review-g60713-d557324-Reviews-Women_s_Building_Mural-San_Francisco_California.html
p719
aV/Attraction_Review-g60713-d4982827-Reviews-Autodesk_Gallery-San_Francisco_California.html
p720
aV/Attraction_Review-g60713-d209304-Reviews-Noe_Valley-San_Francisco_California.html
p721
aV/Attraction_Review-g60713-d3267601-Reviews-Sutro_Heights_Park-San_Francisco_California.html
p722
aV/Attraction_Review-g60713-d265129-Reviews-Corona_Heights-San_Francisco_California.html
p723
aV/Attraction_Review-g60713-d156620-Reviews-Saks_Fifth_Avenue-San_Francisco_California.html
p724
aV/Attraction_Review-g60713-d156308-Reviews-Beach_Chalet-San_Francisco_California.html
p725
aV/Attraction_Review-g60713-d156548-Reviews-Lincoln_Park-San_Francisco_California.html
p726
aV/Attraction_Review-g60713-d274558-Reviews-Presidio_Golf_Course-San_Francisco_California.html
p727
aV/Attraction_Review-g60713-d218837-Reviews-Lincoln_Park_Golf_Course-San_Francisco_California.html
p728
aV/Attraction_Review-g60713-d1936760-Reviews-The_National_Shrine_of_Saint_Francis_of_Assisi-San_Francisco_California.html
p729
aV/Attraction_Review-g60713-d254548-Reviews-Camera_Obscura-San_Francisco_California.html
p730
aV/Attraction_Review-g60713-d145241-Reviews-Chinese_Historical_Society_of_America-San_Francisco_California.html
p731
aV/Attraction_Review-g60713-d545906-Reviews-Lafayette_Park-San_Francisco_California.html
p732
aV/Attraction_Review-g60713-d2630831-Reviews-Rodney_Lough_Jr_San_Francisco_Gallery-San_Francisco_California.html
p733
aV/Attraction_Review-g60713-d108677-Reviews-SoMa_South_of_Market_Street-San_Francisco_California.html
p734
aV/Attraction_Review-g60713-d4091729-Reviews-Far_Fung_Places-San_Francisco_California.html
p735
aV/Attraction_Review-g60713-d6839054-Reviews-Fort_Baker-San_Francisco_California.html
p736
aV/Attraction_Review-g60713-d6739338-Reviews-Sigmund_Stern_Grove-San_Francisco_California.html
p737
aV/Attraction_Review-g60713-d531846-Reviews-BATS_Improv-San_Francisco_California.html
p738
aV/Attraction_Review-g60713-d219469-Reviews-Macondray_Lane-San_Francisco_California.html
p739
aV/Attraction_Review-g60713-d4554038-Reviews-RocketBoat-San_Francisco_California.html
p740
aV/Attraction_Review-g60713-d3836042-Reviews-Golden_Gate_Park_Carousel-San_Francisco_California.html
p741
aV/Attraction_Review-g60713-d4367337-Reviews-Lucky_Strike_San_Francisco-San_Francisco_California.html
p742
aV/Attraction_Review-g60713-d2013974-Reviews-City_Running_Tours-San_Francisco_California.html
p743
aV/Attraction_Review-g60713-d4521914-Reviews-Explore_San_Francisco_Tours-San_Francisco_California.html
p744
aV/Attraction_Review-g60713-d6528659-Reviews-San_Francisco_Running_Tours-San_Francisco_California.html
p745
aV/Attraction_Review-g60713-d311692-Reviews-National_AIDS_Memorial_Grove-San_Francisco_California.html
p746
aV/Attraction_Review-g60713-d117077-Reviews-Don_Edwards_San_Francisco_Bay_Wildlife_Refuge-San_Francisco_California.html
p747
aV/Attraction_Review-g60713-d102507-Reviews-Mount_Davidson-San_Francisco_California.html
p748
aV/Attraction_Review-g60713-d2440554-Reviews-Hendric_Point-San_Francisco_California.html
p749
aV/Attraction_Review-g60713-d156575-Reviews-Neiman_Marcus-San_Francisco_California.html
p750
aV/Attraction_Review-g60713-d146089-Reviews-San_Francisco_National_Cemetery-San_Francisco_California.html
p751
aV/Attraction_Review-g60713-d104945-Reviews-Yerba_Buena_Center_for_the_Arts-San_Francisco_California.html
p752
aV/Attraction_Review-g60713-d6352225-Reviews-Huntington_Park-San_Francisco_California.html
p753
aV/Attraction_Review-g60713-d557320-Reviews-Pioneer_s_Monument-San_Francisco_California.html
p754
aV/Attraction_Review-g60713-d142385-Reviews-Grateful_Dead_House-San_Francisco_California.html
p755
aV/Attraction_Review-g60713-d7998276-Reviews-Golden_Gate_Park_Windmills_Tulips-San_Francisco_California.html
p756
aV/Attraction_Review-g60713-d532203-Reviews-Twin_Peaks_Tavern-San_Francisco_California.html
p757
aV/Attraction_Review-g60713-d4065136-Reviews-440_Castro-San_Francisco_California.html
p758
aV/Attraction_Review-g60713-d531993-Reviews-Cinch_Saloon-San_Francisco_California.html
p759
aV/Attraction_Review-g60713-d108027-Reviews-The_Wave_Organ-San_Francisco_California.html
p760
aV/Attraction_Review-g60713-d8005453-Reviews-Cellarmaker_Brewing_Company-San_Francisco_California.html
p761
aV/Attraction_Review-g60713-d116449-Reviews-Pacific_Union_Club-San_Francisco_California.html
p762
aV/Attraction_Review-g60713-d209629-Reviews-Columbus_Avenue-San_Francisco_California.html
p763
aV/Attraction_Review-g60713-d4039071-Reviews-SHN_Curran_Theatre-San_Francisco_California.html
p764
aV/Attraction_Review-g60713-d3156844-Reviews-Glad_Tidings_Church-San_Francisco_California.html
p765
aV/Attraction_Review-g60713-d2190487-Reviews-Diego_Rivera_Mural-San_Francisco_California.html
p766
aV/Attraction_Review-g60713-d1468199-Reviews-Winery_Collective-San_Francisco_California.html
p767
aV/Attraction_Review-g60713-d209630-Reviews-Stockton_Street-San_Francisco_California.html
p768
aV/Attraction_Review-g60713-d311685-Reviews-Harvey_Milk_Plaza-San_Francisco_California.html
p769
aV/Attraction_Review-g60713-d2409105-Reviews-Speakeasy_Ales_Lagers-San_Francisco_California.html
p770
aV/Attraction_Review-g60713-d2624522-Reviews-Queen_Wilhelmina_Garden-San_Francisco_California.html
p771
aV/Attraction_Review-g60713-d209303-Reviews-Cow_Hollow-San_Francisco_California.html
p772
aV/Attraction_Review-g60713-d156576-Reviews-Neptune_Society_Columbarium-San_Francisco_California.html
p773
aV/Attraction_Review-g60713-d145239-Reviews-California_Historical_Society-San_Francisco_California.html
p774
aV/Attraction_Review-g60713-d7175757-Reviews-The_Bay_Lights-San_Francisco_California.html
p775
aV/Attraction_Review-g60713-d3803982-Reviews-California_Welcome_Center-San_Francisco_California.html
p776
aV/Attraction_Review-g60713-d261552-Reviews-Potrero_Hill-San_Francisco_California.html
p777
aV/Attraction_Review-g60713-d1573951-Reviews-San_Francisco_Whale_Tours-San_Francisco_California.html
p778
aV/Attraction_Review-g60713-d2358119-Reviews-Oceanic_Society_Farallon_Islands_Whale_Watching-San_Francisco_California.html
p779
aV/Attraction_Review-g60713-d2023190-Reviews-SF_Bay_Whale_Watching-San_Francisco_California.html
p780
aV/Attraction_Review-g60713-d3871373-Reviews-NextArts-San_Francisco_California.html
p781
aV/Attraction_Review-g60713-d7035001-Reviews-Sentinel_Building-San_Francisco_California.html
p782
aV/Attraction_Review-g60713-d127908-Reviews-Morrison_Planetarium-San_Francisco_California.html
p783
aV/Attraction_Review-g60713-d7212042-Reviews-USS_San_Francisco_Memorial-San_Francisco_California.html
p784
aV/Attraction_Review-g60713-d2203953-Reviews-International_Art_Museum_of_America-San_Francisco_California.html
p785
aV/Attraction_Review-g60713-d1179027-Reviews-Press_Club-San_Francisco_California.html
p786
aV/Attraction_Review-g60713-d1822731-Reviews-Golden_Gate_Theatre-San_Francisco_California.html
p787
aV/Attraction_Review-g60713-d497654-Reviews-Cobb_s_Comedy_Club-San_Francisco_California.html
p788
aV/Attraction_Review-g60713-d142392-Reviews-Punch_Line-San_Francisco_California.html
p789
aV/Attraction_Review-g60713-d1550245-Reviews-The_Marsh-San_Francisco_California.html
p790
aV/Attraction_Review-g60713-d156664-Reviews-Stonestown_Galleria-San_Francisco_California.html
p791
aV/Attraction_Review-g60713-d103189-Reviews-Lake_Merced-San_Francisco_California.html
p792
aV/Attraction_Review-g60713-d1091843-Reviews-Eurasian_Interiors_Chinese_Antiques_Furniture-San_Francisco_California.html
p793
aV/Attraction_Review-g60713-d2402650-Reviews-Jack_Early_Park-San_Francisco_California.html
p794
aV/Attraction_Review-g60713-d265131-Reviews-Tank_Hill-San_Francisco_California.html
p795
aV/Attraction_Review-g60713-d8036458-Reviews-Top_of_Broadway_District-San_Francisco_California.html
p796
aV/Attraction_Review-g60713-d2233733-Reviews-Asia_Society_and_Museum-San_Francisco_California.html
p797
aV/Attraction_Review-g60713-d2477814-Reviews-Isla_Studio_Photography_Classes-San_Francisco_California.html
p798
aV/Attraction_Review-g60713-d3511988-Reviews-The_Cheese_School_of_San_Francisco-San_Francisco_California.html
p799
aV/Attraction_Review-g60713-d4027073-Reviews-San_Francisco_History_Museum-San_Francisco_California.html
p800
aV/Attraction_Review-g60713-d546392-Reviews-Vermont_Street-San_Francisco_California.html
p801
aV/Attraction_Review-g60713-d142456-Reviews-The_Promenade-San_Francisco_California.html
p802
aV/Attraction_Review-g60713-d2155715-Reviews-San_Francisco_Flower_Mart-San_Francisco_California.html
p803
aV/Attraction_Review-g60713-d1461814-Reviews-Treasure_Island_Wines-San_Francisco_California.html
p804
aV/Attraction_Review-g60713-d557334-Reviews-Wonders_of_Tibet-San_Francisco_California.html
p805
aV/Attraction_Review-g60713-d557309-Reviews-Holy_Virgin_Cathedral-San_Francisco_California.html
p806
aV/Attraction_Review-g60713-d6510272-Reviews-Waterfront_Playground_at_Sue_Bierman_Park-San_Francisco_California.html
p807
aV/Attraction_Review-g60713-d106239-Reviews-Queen_Anne_Victorians-San_Francisco_California.html
p808
aV/Attraction_Review-g60713-d7762284-Reviews-San_Francisco_Art_Exchange-San_Francisco_California.html
p809
aV/Attraction_Review-g60713-d128931-Reviews-Pioneer_Park-San_Francisco_California.html
p810
aV/Attraction_Review-g60713-d8453923-Reviews-Marshall_s_Beach-San_Francisco_California.html
p811
aV/Attraction_Review-g60713-d7708909-Reviews-Franklin_Bowles_Gallery-San_Francisco_California.html
p812
aV/Attraction_Review-g60713-d144425-Reviews-The_Mechanics_Monument-San_Francisco_California.html
p813
aV/Attraction_Review-g60713-d274660-Reviews-Sutro_Tower-San_Francisco_California.html
p814
aV/Attraction_Review-g60713-d2414399-Reviews-SF_Chinatown_Ghost_Tours-San_Francisco_California.html
p815
aV/Attraction_Review-g60713-d3381849-Reviews-San_Francisco_Ghost_Hunt-San_Francisco_California.html
p816
aV/Attraction_Review-g60713-d4263666-Reviews-Haunted_Haight_Walking_Tour-San_Francisco_California.html
p817
aV/Attraction_Review-g60713-d7708924-Reviews-Eden_Fine_Art-San_Francisco_California.html
p818
aV/Attraction_Review-g60713-d3348859-Reviews-Julius_Kahn_Playground-San_Francisco_California.html
p819
aV/Attraction_Review-g60713-d103933-Reviews-Marines_Memorial_Theater-San_Francisco_California.html
p820
aV/Attraction_Review-g60713-d5293412-Reviews-Museum_of_Craft_and_Design-San_Francisco_California.html
p821
aV/Attraction_Review-g60713-d6413058-Reviews-Presidio_Theatre-San_Francisco_California.html
p822
aV/Attraction_Review-g60713-d6855822-Reviews-Book_Passage-San_Francisco_California.html
p823
aV/Attraction_Review-g60713-d8611780-Reviews-Transamerica_Redwood_Park-San_Francisco_California.html
p824
aV/Attraction_Review-g60713-d619223-Reviews-San_Francisco_Shuttle_Tours-San_Francisco_California.html
p825
aV/Attraction_Review-g60713-d4131870-Reviews-Bike_View_Bicycle_Rentals_and_Tours-San_Francisco_California.html
p826
aV/Attraction_Review-g60713-d546400-Reviews-Francis_Lefty_O_Doul_Bridge-San_Francisco_California.html
p827
aV/Attraction_Review-g60713-d6473845-Reviews-Alemany_Flea_Market-San_Francisco_California.html
p828
aV/Attraction_Review-g60713-d209301-Reviews-Laurel_Village_Shopping_Center-San_Francisco_California.html
p829
aV/Attraction_Review-g60713-d3905901-Reviews-Vinicola_de_Coppola-San_Francisco_California.html
p830
aV/Attraction_Review-g60713-d156532-Reviews-Jackson_Square-San_Francisco_California.html
p831
aV/Attraction_Review-g60713-d6784155-Reviews-Admission_s_Day_Statue-San_Francisco_California.html
p832
aV/Attraction_Review-g60713-d3783527-Reviews-Circus_Center-San_Francisco_California.html
p833
aV/Attraction_Review-g60713-d1753322-Reviews-Kiku_Imports-San_Francisco_California.html
p834
aV/Attraction_Review-g60713-d142417-Reviews-Museo_Italo_Americano-San_Francisco_California.html
p835
aV/Attraction_Review-g60713-d105382-Reviews-Bay_Area_Ridge_Trail-San_Francisco_California.html
p836
aV/Attraction_Review-g60713-d8028434-Reviews-Embarcadero_Center_Cinema-San_Francisco_California.html
p837
aV/Attraction_Review-g60713-d1419803-Reviews-Mission_Bay_Conference_Center_at_UCSF-San_Francisco_California.html
p838
aV/Attraction_Review-g60713-d261546-Reviews-Richmond_District-San_Francisco_California.html
p839
aV/Attraction_Review-g60713-d6484248-Reviews-Pier_24_Photography_Museum-San_Francisco_California.html
p840
aV/Attraction_Review-g60713-d3410479-Reviews-TIX_Bay_Area-San_Francisco_California.html
p841
aV/Attraction_Review-g60713-d126345-Reviews-Juan_Bautista_de_Anza_National_Historic_Trail-San_Francisco_California.html
p842
aV/Attraction_Review-g60713-d106969-Reviews-South_Bay-San_Francisco_California.html
p843
aV/Attraction_Review-g60713-d7236989-Reviews-Maison_Bleu_Maxime_Le_Forestier-San_Francisco_California.html
p844
aV/Attraction_Review-g60713-d7197443-Reviews-Spreckels_Lake-San_Francisco_California.html
p845
aV/Attraction_Review-g60713-d6557723-Reviews-Mount_Sutro_Forest-San_Francisco_California.html
p846
aV/Attraction_Review-g60713-d7708858-Reviews-ZK_Gallery-San_Francisco_California.html
p847
aV/Attraction_Review-g60713-d2346278-Reviews-Napier_Lane-San_Francisco_California.html
p848
aV/Attraction_Review-g60713-d1165352-Reviews-Vulcan_Steps-San_Francisco_California.html
p849
aV/Attraction_Review-g60713-d6122441-Reviews-Saint_Boniface_Catholic_Church-San_Francisco_California.html
p850
aV/Attraction_Review-g60713-d6582403-Reviews-1AM_Gallery-San_Francisco_California.html
p851
aV/Attraction_Review-g60713-d3936108-Reviews-Martin_Lawrence_Galleries-San_Francisco_California.html
p852
aV/Attraction_Review-g60713-d557329-Reviews-Swedenborgian_Church-San_Francisco_California.html
p853
aV/Attraction_Review-g60713-d265130-Reviews-Kite_Hill_Open_Space-San_Francisco_California.html
p854
aV/Attraction_Review-g60713-d102418-Reviews-Fillmore_Auditorium-San_Francisco_California.html
p855
aV/Attraction_Review-g60713-d531968-Reviews-Philharmonia_Baroque_Orchestra-San_Francisco_California.html
p856
aV/Attraction_Review-g60713-d7710471-Reviews-Old_First_Concerts-San_Francisco_California.html
p857
aV/Attraction_Review-g60713-d156725-Reviews-Upper_Grant_Avenue-San_Francisco_California.html
p858
aV/Attraction_Review-g60713-d156293-Reviews-Art_for_Children_at_the_de_Young_Museum-San_Francisco_California.html
p859
aV/Attraction_Review-g60713-d145242-Reviews-Pacific_Heritage_Museum_of_San_Francisco-San_Francisco_California.html
p860
aV/Attraction_Review-g60713-d3946891-Reviews-Victoria_Theatre-San_Francisco_California.html
p861
aV/Attraction_Review-g60713-d6352229-Reviews-Aviation_Museum_Library-San_Francisco_California.html
p862
aV/Attraction_Review-g60713-d144979-Reviews-1_5_mile_Coastal_Trail-San_Francisco_California.html
p863
aV/Attraction_Review-g60713-d7235062-Reviews-Cole_Valley-San_Francisco_California.html
p864
aV/Attraction_Review-g60713-d143321-Reviews-450_Sutter_Building-San_Francisco_California.html
p865
aV/Attraction_Review-g60713-d8733838-Reviews-Custom_House-San_Francisco_California.html
p866
aV/Attraction_Review-g60713-d8610384-Reviews-Strawberry_Hill-San_Francisco_California.html
p867
aV/Attraction_Review-g60713-d8405701-Reviews-Spreckels_Mansion-San_Francisco_California.html
p868
aV/Attraction_Review-g60713-d8036482-Reviews-Letterform_Archive-San_Francisco_California.html
p869
aV/Attraction_Review-g60713-d7708915-Reviews-Dennis_Rae_Fine_Art-San_Francisco_California.html
p870
aV/Attraction_Review-g60713-d7348638-Reviews-Holy_Trinity_Greek_Orthodox_Church-San_Francisco_California.html
p871
aV/Attraction_Review-g60713-d7101941-Reviews-Bliss_Dance_Esculture-San_Francisco_California.html
p872
aV/Attraction_Review-g60713-d6537583-Reviews-Galeria_de_la_Raza-San_Francisco_California.html
p873
aV/Attraction_Review-g60713-d6527679-Reviews-Artillery_Apparel_Gallery-San_Francisco_California.html
p874
aV/Attraction_Review-g60713-d6210685-Reviews-Boxcar_Theatre-San_Francisco_California.html
p875
aV/Attraction_Review-g60713-d6103878-Reviews-Moore_Road_Pier-San_Francisco_California.html
p876
aV/Attraction_Review-g60713-d4476421-Reviews-Teuscher_Chocolates_of_Switzerland-San_Francisco_California.html
p877
aV/Attraction_Review-g60713-d4101955-Reviews-Gordon_Parks_Centennial-San_Francisco_California.html
p878
aV/Attraction_Review-g60713-d621595-Reviews-Church_of_St_John_Coltrane-San_Francisco_California.html
p879
aV/Attraction_Review-g60713-d614217-Reviews-Red_Poppy_Art_House-San_Francisco_California.html
p880
aV/Attraction_Review-g60713-d557322-Reviews-Temple_Emanu_El-San_Francisco_California.html
p881
aV/Attraction_Review-g60713-d557318-Reviews-Norras_Temple-San_Francisco_California.html
p882
aV/Attraction_Review-g60713-d557315-Reviews-Konko_Church_of_San_Francisco-San_Francisco_California.html
p883
aV/Attraction_Review-g60713-d532443-Reviews-Images_of_the_North-San_Francisco_California.html
p884
aV/Attraction_Review-g60713-d532381-Reviews-Catharine_Clark_Gallery-San_Francisco_California.html
p885
aV/Attraction_Review-g60713-d219475-Reviews-Sanchez_Street-San_Francisco_California.html
p886
aV/Attraction_Review-g60713-d219470-Reviews-Lyon_Street-San_Francisco_California.html
p887
aV/Attraction_Review-g60713-d142390-Reviews-San_Francisco_Performing_Arts_Library_Museum-San_Francisco_California.html
p888
aV/Attraction_Review-g60713-d127934-Reviews-The_Mexican_Museum-San_Francisco_California.html
p889
aV/Attraction_Review-g60713-d4461309-Reviews-Bluxome_Street_Winery-San_Francisco_California.html
p890
aV/Attraction_Review-g60713-d156540-Reviews-Kezar_Stadium-San_Francisco_California.html
p891
aV/Attraction_Review-g60713-d6826222-Reviews-Arelious_Walker_Stairway-San_Francisco_California.html
p892
aV/Attraction_Review-g60713-d557300-Reviews-Randall_Museum-San_Francisco_California.html
p893
aV/Attraction_Review-g60713-d146087-Reviews-Dolores_Heights-San_Francisco_California.html
p894
aV/Attraction_Review-g60713-d1010540-Reviews-Tony_n_Tina_s_Wedding-San_Francisco_California.html
p895
aV/Attraction_Review-g60713-d1936410-Reviews-18th_Amendment_Speakeasy_Dinner-San_Francisco_California.html
p896
aV/Attraction_Review-g60713-d8533279-Reviews-The_Barbary_Coast_Revue-San_Francisco_California.html
p897
aV/Attraction_Review-g60713-d1228220-Reviews-Jefferson_Airplane_House-San_Francisco_California.html
p898
aV/Attraction_Review-g60713-d2295784-Reviews-Eureka_Steam_Ferry-San_Francisco_California.html
p899
aV/Attraction_Review-g60713-d8733848-Reviews-St_Mary_s_Square-San_Francisco_California.html
p900
aV/Attraction_Review-g60713-d6753957-Reviews-Banker_s_Heart-San_Francisco_California.html
p901
aV/Attraction_Review-g60713-d557319-Reviews-Kong_Chow_Temple-San_Francisco_California.html
p902
aV/Attraction_Review-g60713-d2177900-Reviews-San_Francisco_Kayak_Adventures-San_Francisco_California.html
p903
aV/Attraction_Review-g60713-d1603020-Reviews-City_Kayak-San_Francisco_California.html
p904
aV/Attraction_Review-g60713-d7725684-Reviews-Clay_Theater-San_Francisco_California.html
p905
aV/Attraction_Review-g60713-d7625493-Reviews-St_Mark_s_Lutheran_Church-San_Francisco_California.html
p906
aV/Attraction_Review-g60713-d6537585-Reviews-SOMArts-San_Francisco_California.html
p907
aV/Attraction_Review-g60713-d2634025-Reviews-Urban_Dharma_Dharma_Punx-San_Francisco_California.html
p908
aV/Attraction_Review-g60713-d1165350-Reviews-Harry_Steps-San_Francisco_California.html
p909
aV/Attraction_Review-g60713-d156654-Reviews-San_Francisco_Brewing_Company-San_Francisco_California.html
p910
aV/Attraction_Review-g60713-d145243-Reviews-San_Francisco_History_Room_and_Archives-San_Francisco_California.html
p911
aV/Attraction_Review-g60713-d156573-Reviews-Mission_Cliffs-San_Francisco_California.html
p912
aV/Attraction_Review-g60713-d156735-Reviews-Embarcadero_Branch_YMCA-San_Francisco_California.html
p913
aV/Attraction_Review-g60713-d7194730-Reviews-Elevate_Group_Fitness-San_Francisco_California.html
p914
aV/Attraction_Review-g60713-d8660947-Reviews-Dragon_s_Gate-San_Francisco_California.html
p915
aV/Attraction_Review-g60713-d5533564-Reviews-Occidental_Cigar_Club-San_Francisco_California.html
p916
aV/Attraction_Review-g60713-d313399-Reviews-49_Geary_Street_Art_Galleries-San_Francisco_California.html
p917
aV/Attraction_Review-g60713-d3510295-Reviews-Raygun_Gothic_Rocketship_Pier_14-San_Francisco_California.html
p918
aV/Attraction_Review-g60713-d3825741-Reviews-Mission_Creek_Park-San_Francisco_California.html
p919
aV/Attraction_Review-g60713-d156465-Reviews-Golden_Gate_Park_Tennis_Center-San_Francisco_California.html
p920
aV/Attraction_Review-g60713-d9715178-Reviews-Museum_of_Vision-San_Francisco_California.html
p921
aV/Attraction_Review-g60713-d9591666-Reviews-Velvet_Da_Vinci-San_Francisco_California.html
p922
aV/Attraction_Review-g60713-d531998-Reviews-The_Mint_Karaoke_Lounge-San_Francisco_California.html
p923
aV/Attraction_Review-g60713-d6855868-Reviews-Pandora_Karaoke_Bar-San_Francisco_California.html
p924
aV/Attraction_Review-g60713-d156471-Reviews-Gordon_Biersch-San_Francisco_California.html
p925
aV/Attraction_Review-g60713-d116547-Reviews-South_Park-San_Francisco_California.html
p926
aV/Attraction_Review-g60713-d1791167-Reviews-Hiking_Yoga-San_Francisco_California.html
p927
aV/Attraction_Review-g60713-d2636205-Reviews-Satori_Yoga_Studio-San_Francisco_California.html
p928
aV/Attraction_Review-g60713-d8617611-Reviews-Yoga_Flow_SF_OCEAN-San_Francisco_California.html
p929
aV/Attraction_Review-g60713-d3469890-Reviews-Tastebud_Tours_San_Francisco_Food_Tours-San_Francisco_California.html
p930
aV/Attraction_Review-g60713-d8587671-Reviews-18reasons-San_Francisco_California.html
p931
aV/Attraction_Review-g60713-d8674652-Reviews-Bleu_Ribbon_Kitchen_Le_Cordon_Bleu_San_Francisco_Campus-San_Francisco_California.html
p932
aV/Attraction_Review-g60713-d6381670-Reviews-SFFD_Fire_Museum-San_Francisco_California.html
p933
aV/Attraction_Review-g60713-d1540184-Reviews-California_Land_Safari_AM_PM_Tours-San_Francisco_California.html
p934
aV/Attraction_Review-g60713-d557303-Reviews-Candlestick_Point_State_Recreation_Area-San_Francisco_California.html
p935
aV/Attraction_Review-g60713-d7159352-Reviews-Ten_Ren_Tea_Co_Ltd-San_Francisco_California.html
p936
aV/Attraction_Review-g60713-d9752786-Reviews-Herbst_Theatre-San_Francisco_California.html
p937
aV/Attraction_Review-g60713-d2005962-Reviews-Shop_and_the_City_Tour-San_Francisco_California.html
p938
aV/Attraction_Review-g60713-d9717257-Reviews-Glamour_Girl_Shopping_Tours-San_Francisco_California.html
p939
aV/Attraction_Review-g60713-d2226900-Reviews-John_McLaren_Park-San_Francisco_California.html
p940
aV/Attraction_Review-g60713-d6912478-Reviews-Nourse_Theatre-San_Francisco_California.html
p941
aV/Attraction_Review-g60713-d8076808-Reviews-Mohandas_K_Gandhi_Gandhi_Statue-San_Francisco_California.html
p942
aV/Attraction_Review-g60713-d8566722-Reviews-Coastal_Walkers-San_Francisco_California.html
p943
aV/Attraction_Review-g60713-d6534810-Reviews-San_Francisco_Federal_Building-San_Francisco_California.html
p944
aV/Attraction_Review-g60713-d277941-Reviews-Golden_Gate_Jeep_Tours-San_Francisco_California.html
p945
aV/Attraction_Review-g60713-d6534820-Reviews-New_United_States_Mint-San_Francisco_California.html
p946
aV/Attraction_Review-g60713-d104534-Reviews-Defenestration_Building-San_Francisco_California.html
p947
aV/Attraction_Review-g60713-d127928-Reviews-Museum_of_Craft_and_Folk_Art-San_Francisco_California.html
p948
aV/Attraction_Review-g60713-d2646110-Reviews-12_Gallagher_Lane-San_Francisco_California.html
p949
aV/Attraction_Review-g60713-d6212012-Reviews-Dubbelju_Motorcycle_Rentals-San_Francisco_California.html
p950
aV/Attraction_Review-g60713-d8597342-Reviews-Motorcycle_Rides_with_Bobby-San_Francisco_California.html
p951
aV/Attraction_Review-g60713-d2301713-Reviews-CLASH_Scavenger_Hunts-San_Francisco_California.html
p952
aV/Attraction_Review-g60713-d1889004-Reviews-Watson_Adventures_Scavenger_Hunts_San_Francisco-San_Francisco_California.html
p953
aV/Attraction_Review-g60713-d1580178-Reviews-Finding_San_Francisco_A_Scavenger_Tour-San_Francisco_California.html
p954
aV/Attraction_Review-g60713-d8594057-Reviews-Welcome_Limousine_Service-San_Francisco_California.html
p955
aV/Attraction_Review-g60713-d2268628-Reviews-Marina_Veronica_Art_Fashion_Tours-San_Francisco_California.html
p956
aV/Attraction_Review-g60713-d9763793-Reviews-Abaluche_Wine_Company-San_Francisco_California.html
p957
aV/Attraction_Review-g60713-d9728810-Reviews-Gallery_444-San_Francisco_California.html
p958
aV/Attraction_Review-g60713-d8820350-Reviews-San_Francisco_Pride-San_Francisco_California.html
p959
aV/Attraction_Review-g60713-d8820329-Reviews-Outside_Lands-San_Francisco_California.html
p960
aV/Attraction_Review-g60713-d8820247-Reviews-Hardly_Strictly_Bluegrass_Festival-San_Francisco_California.html
p961
aV/Attraction_Review-g60713-d8816532-Reviews-Vedanta_Society_of_Northern_California-San_Francisco_California.html
p962
aV/Attraction_Review-g60713-d8761380-Reviews-James_R_Browning_United_States_Courthouse-San_Francisco_California.html
p963
aV/Attraction_Review-g60713-d8612778-Reviews-Timbuk2_Factory_Store-San_Francisco_California.html
p964
aV/Attraction_Review-g60713-d8129360-Reviews-AlSabeel_Noor_Al_Islam_Mosque-San_Francisco_California.html
p965
aV/Attraction_Review-g60713-d8066827-Reviews-Art_Attack_SF-San_Francisco_California.html
p966
aV/Attraction_Review-g60713-d7708855-Reviews-Chloe_Gallery-San_Francisco_California.html
p967
aV/Attraction_Review-g60713-d7218597-Reviews-Gallery_925-San_Francisco_California.html
p968
aV/Attraction_Review-g60713-d4406908-Reviews-African_American_Art_Culture_Complex-San_Francisco_California.html
p969
aV/Attraction_Review-g60713-d4225757-Reviews-EXIT_Theatre-San_Francisco_California.html
p970
aV/Attraction_Review-g60713-d3865261-Reviews-Stein_Family_Wines-San_Francisco_California.html
p971
aV/Attraction_Review-g60713-d3831421-Reviews-Mashouf_Performing_Arts_Center-San_Francisco_California.html
p972
aV/Attraction_Review-g60713-d3746607-Reviews-Hua_Zang_Si-San_Francisco_California.html
p973
aV/Attraction_Review-g60713-d3596902-Reviews-BAPS_Shri_Swaminarayan_Mandir-San_Francisco_California.html
p974
aV/Attraction_Review-g60713-d3383051-Reviews-Grand_Central_Station_Antiques-San_Francisco_California.html
p975
aV/Attraction_Review-g60713-d2195050-Reviews-Fouladi_Projects-San_Francisco_California.html
p976
aV/Attraction_Review-g60713-d2189008-Reviews-The_Distilled_Man-San_Francisco_California.html
p977
aV/Attraction_Review-g60713-d1973190-Reviews-ABC_s_7Live_Voice_Box-San_Francisco_California.html
p978
aV/Attraction_Review-g60713-d1418681-Reviews-Concourse_Exhibition_Center-San_Francisco_California.html
p979
aV/Attraction_Review-g60713-d1165353-Reviews-Saturn_Steps-San_Francisco_California.html
p980
aV/Attraction_Review-g60713-d614216-Reviews-Intersection_for_the_Arts-San_Francisco_California.html
p981
aV/Attraction_Review-g60713-d588552-Reviews-Society_of_California_Pioneers-San_Francisco_California.html
p982
aV/Attraction_Review-g60713-d557328-Reviews-Labyrinth_of_Cultures-San_Francisco_California.html
p983
aV/Attraction_Review-g60713-d557326-Reviews-Phoenix_Gallery-San_Francisco_California.html
p984
aV/Attraction_Review-g60713-d557311-Reviews-Buddha_s_Universal_Church-San_Francisco_California.html
p985
aV/Attraction_Review-g60713-d557299-Reviews-San_Francisco_African_American_Historical_Cultural_Society-San_Francisco_California.html
p986
aV/Attraction_Review-g60713-d545910-Reviews-Allyne_Park-San_Francisco_California.html
p987
aV/Attraction_Review-g60713-d545897-Reviews-Walter_S_Johnson_Park-San_Francisco_California.html
p988
aV/Attraction_Review-g60713-d532715-Reviews-Meyerovich_Gallery-San_Francisco_California.html
p989
aV/Attraction_Review-g60713-d532698-Reviews-Maxwell_Galleries-San_Francisco_California.html
p990
aV/Attraction_Review-g60713-d532442-Reviews-Hang-San_Francisco_California.html
p991
aV/Attraction_Review-g60713-d532430-Reviews-Fraenkel_Gallery-San_Francisco_California.html
p992
aV/Attraction_Review-g60713-d532416-Reviews-Eleonore_Austerer_Gallery-San_Francisco_California.html
p993
aV/Attraction_Review-g60713-d532295-Reviews-Atelier_Dore-San_Francisco_California.html
p994
aV/Attraction_Review-g60713-d262484-Reviews-Russian_Center_of_San_Francisco-San_Francisco_California.html
p995
aV/Attraction_Review-g60713-d214309-Reviews-381_G_Gallery-San_Francisco_California.html
p996
aV/Attraction_Review-g60713-d209645-Reviews-Gallery_of_Ethnic_Art-San_Francisco_California.html
p997
aV/Attraction_Review-g60713-d209525-Reviews-Grand_Pacheco_Stairway-San_Francisco_California.html
p998
aV/Attraction_Review-g60713-d209302-Reviews-Upper_Fillmore-San_Francisco_California.html
p999
aV/Attraction_Review-g60713-d156325-Reviews-Bullock_and_Jones-San_Francisco_California.html
p1000
aV/Attraction_Review-g60713-d146535-Reviews-Wolf_Ridge_Loop-San_Francisco_California.html
p1001
aV/Attraction_Review-g60713-d146088-Reviews-Upper_Market-San_Francisco_California.html
p1002
aV/Attraction_Review-g60713-d145246-Reviews-McLellan_Botanicals-San_Francisco_California.html
p1003
aV/Attraction_Review-g60713-d145244-Reviews-Telephone_Pioneers_Communication_Museum-San_Francisco_California.html
p1004
aV/Attraction_Review-g60713-d144978-Reviews-Ecology_Trail-San_Francisco_California.html
p1005
aV/Attraction_Review-g60713-d104212-Reviews-Redwood_Empire_Association-San_Francisco_California.html
p1006
aa.